; Function Attrs: mustprogress uwtable
define hidden void @_ZN3smt18quantifier_manager12adjust_modelEP11proto_model(ptr noundef nonnull readonly align 8 captures(none) dereferenceable(13) %0, ptr noundef %1) local_unnamed_addr #4 align 2 {
  %3 = load ptr, ptr %0, align 8, !tbaa !82
  %4 = getelementptr inbounds nuw i8, ptr %3, i64 1160
  %5 = load ptr, ptr %4, align 8, !tbaa !85
  %6 = load ptr, ptr %5, align 8, !tbaa !56
  %7 = getelementptr inbounds nuw i8, ptr %6, i64 136
  %8 = load ptr, ptr %7, align 8
  tail call void %8(ptr noundef nonnull align 8 dereferenceable(8) %5, ptr noundef %1)
  ret void
}